target datalayout = "e-m:e-p270:32:32-p271:32:32-p272:64:64-i64:64-i128:128-f80:128-n8:16:32:64-S128"
target triple = "x86_64-pc-linux-gnu"

@EventTriggerCacheState = internal global i32 0, align 4
@EventTriggerCache = internal global ptr null, align 8
@EventTriggerCacheContext = internal global ptr null, align 8

; Function Attrs: nounwind uwtable
define internal void @InvalidateEventCacheCallback(i64 noundef %0, i32 noundef %1, i32 noundef %2) #0 {
  %4 = alloca i64, align 8
  %5 = alloca i32, align 4
  %6 = alloca i32, align 4
  store i64 %0, ptr %4, align 8
  store i32 %1, ptr %5, align 4
  store i32 %2, ptr %6, align 4
  %7 = load i32, ptr @EventTriggerCacheState, align 4
  %8 = icmp eq i32 %7, 2
  br i1 %8, label %9, label %11

9:                                                ; preds = %3
  %10 = load ptr, ptr @EventTriggerCacheContext, align 8
  call void @MemoryContextReset(ptr noundef %10)
  store ptr null, ptr @EventTriggerCache, align 8
  br label %11

11:                                               ; preds = %9, %3
  store i32 0, ptr @EventTriggerCacheState, align 4
  ret void
}