; Function Attrs: nounwind uwtable
define internal void @InvalidateEventCacheCallback(i64 %0, i32 %1, i32 %2) #0 {
  %4 = load i32, ptr @EventTriggerCacheState, align 4
  %5 = icmp eq i32 %4, 2
  br i1 %5, label %6, label %8

6:                                                ; preds = %3
  %7 = load ptr, ptr @EventTriggerCacheContext, align 8
  tail call void @MemoryContextReset(ptr noundef %7) #6
  store ptr null, ptr @EventTriggerCache, align 8
  br label %8

8:                                                ; preds = %6, %3
  store i32 0, ptr @EventTriggerCacheState, align 4
  ret void
}